target datalayout = "e-m:e-p270:32:32-p271:32:32-p272:64:64-i64:64-i128:128-f80:128-n8:16:32:64-S128"
target triple = "x86_64-pc-linux-gnu"

%struct.ZSTD_customMem = type { ptr, ptr, ptr }
%struct.ZSTD_frameParameters = type { i32, i32, i32 }
%struct.ZSTD_compressionParameters = type { i32, i32, i32, i32, i32, i32, i32 }
%struct.ZSTD_CCtx_s = type { i32, i32, i32, %struct.ZSTD_CCtx_params_s, %struct.ZSTD_CCtx_params_s, %struct.ZSTD_CCtx_params_s, i32, i64, %struct.ZSTD_cwksp, i64, i64, i64, i64, %struct.XXH64_state_s, %struct.ZSTD_customMem, ptr, i64, %struct.SeqCollector, i32, i32, %struct.SeqStore_t, %struct.ldmState_t, ptr, i64, %struct.RawSeqStore_t, %struct.ZSTD_blockState_t, ptr, i64, i32, ptr, i64, i64, i64, i64, ptr, i64, i64, i64, i32, i32, %struct.ZSTD_inBuffer_s, i64, i64, %struct.ZSTD_localDict, ptr, %struct.ZSTD_prefixDict_s, ptr, i64, %struct.ZSTD_blockSplitCtx, ptr, i64 }
%struct.ZSTD_CCtx_params_s = type { i32, %struct.ZSTD_compressionParameters, %struct.ZSTD_frameParameters, i32, i32, i64, i32, i32, i32, i32, i64, i32, i32, %struct.ldmParams_t, i32, i32, i32, i32, i32, i32, i32, i64, i32, i32, %struct.ZSTD_customMem, i32, i32, ptr, ptr, i32 }
%struct.ldmParams_t = type { i32, i32, i32, i32, i32, i32 }
%struct.ZSTD_cwksp = type { ptr, ptr, ptr, ptr, ptr, ptr, ptr, i8, i32, i32, i32 }
%struct.XXH64_state_s = type { i64, [4 x i64], [4 x i64], i32, i32, i64 }
%struct.SeqCollector = type { i32, ptr, i64, i64 }
%struct.SeqStore_t = type { ptr, ptr, ptr, ptr, ptr, ptr, ptr, i64, i64, i32, i32 }
%struct.ldmState_t = type { %struct.ZSTD_window_t, ptr, i32, ptr, [64 x i64], [64 x %struct.ldmMatchCandidate_t] }
%struct.ZSTD_window_t = type { ptr, ptr, ptr, i32, i32, i32 }
%struct.ldmMatchCandidate_t = type { ptr, i32, i32, ptr }
%struct.RawSeqStore_t = type { ptr, i64, i64, i64, i64 }
%struct.ZSTD_blockState_t = type { ptr, ptr, %struct.ZSTD_MatchState_t }
%struct.ZSTD_MatchState_t = type { %struct.ZSTD_window_t, i32, i32, i32, i32, ptr, [8 x i32], i64, i32, ptr, ptr, ptr, i32, i32, %struct.optState_t, ptr, %struct.ZSTD_compressionParameters, ptr, i32, i32 }
%struct.optState_t = type { ptr, ptr, ptr, ptr, ptr, ptr, i32, i32, i32, i32, i32, i32, i32, i32, i32, ptr, i32 }
%struct.ZSTD_inBuffer_s = type { ptr, i64, i64 }
%struct.ZSTD_localDict = type { ptr, ptr, i64, i32, ptr }
%struct.ZSTD_prefixDict_s = type { ptr, i64, i32 }
%struct.ZSTD_blockSplitCtx = type { %struct.SeqStore_t, %struct.SeqStore_t, %struct.SeqStore_t, %struct.SeqStore_t, %struct.SeqStore_t, [196 x i32], %struct.ZSTD_entropyCTablesMetadata_t }
%struct.ZSTD_entropyCTablesMetadata_t = type { %struct.ZSTD_hufCTablesMetadata_t, %struct.ZSTD_fseCTablesMetadata_t }
%struct.ZSTD_hufCTablesMetadata_t = type { i32, [128 x i8], i64 }
%struct.ZSTD_fseCTablesMetadata_t = type { i32, i32, i32, [133 x i8], i64, i64 }
%struct.ZSTD_parameters = type { %struct.ZSTD_compressionParameters, %struct.ZSTD_frameParameters }

; Function Attrs: nounwind uwtable
define internal i32 @ZSTD_rowMatchFinderSupported(i32 noundef %0) #0 {
  %2 = alloca i32, align 4
  store i32 %0, ptr %2, align 4, !tbaa !53
  %3 = load i32, ptr %2, align 4, !tbaa !53
  %4 = icmp uge i32 %3, 3
  br i1 %4, label %5, label %8

5:                                                ; preds = %1
  %6 = load i32, ptr %2, align 4, !tbaa !53
  %7 = icmp ule i32 %6, 5
  br label %8

8:                                                ; preds = %5, %1
  %9 = phi i1 [ false, %1 ], [ %7, %5 ]
  %10 = zext i1 %9 to i32
  ret i32 %10
}

; Function Attrs: nounwind uwtable
define internal i32 @ZSTD_resolveExternalRepcodeSearch(i32 noundef %0, i32 noundef %1) #0 {
  %3 = alloca i32, align 4
  %4 = alloca i32, align 4
  %5 = alloca i32, align 4
  store i32 %0, ptr %4, align 4, !tbaa !53
  store i32 %1, ptr %5, align 4, !tbaa !53
  %6 = load i32, ptr %4, align 4, !tbaa !53
  %7 = icmp ne i32 %6, 0
  br i1 %7, label %8, label %10

8:                                                ; preds = %2
  %9 = load i32, ptr %4, align 4, !tbaa !53
  store i32 %9, ptr %3, align 4
  br label %15

10:                                               ; preds = %2
  %11 = load i32, ptr %5, align 4, !tbaa !53
  %12 = icmp slt i32 %11, 10
  br i1 %12, label %13, label %14

13:                                               ; preds = %10
  store i32 2, ptr %3, align 4
  br label %15

14:                                               ; preds = %10
  store i32 1, ptr %3, align 4
  br label %15

15:                                               ; preds = %14, %13, %8
  %16 = load i32, ptr %3, align 4
  ret i32 %16
}

; Function Attrs: nounwind uwtable
define internal i64 @ZSTD_resolveMaxBlockSize(i64 noundef %0) #0 {
  %2 = alloca i64, align 8
  %3 = alloca i64, align 8
  store i64 %0, ptr %3, align 8, !tbaa !3
  %4 = load i64, ptr %3, align 8, !tbaa !3
  %5 = icmp eq i64 %4, 0
  br i1 %5, label %6, label %7

6:                                                ; preds = %1
  store i64 131072, ptr %2, align 8
  br label %9

7:                                                ; preds = %1
  %8 = load i64, ptr %3, align 8, !tbaa !3
  store i64 %8, ptr %2, align 8
  br label %9

9:                                                ; preds = %7, %6
  %10 = load i64, ptr %2, align 8
  ret i64 %10
}

; Function Attrs: nounwind uwtable
define internal i32 @ZSTD_resolveExternalSequenceValidation(i32 noundef %0) #0 {
  %2 = alloca i32, align 4
  store i32 %0, ptr %2, align 4, !tbaa !53
  %3 = load i32, ptr %2, align 4, !tbaa !53
  ret i32 %3
}

; Function Attrs: nounwind uwtable
define internal i32 @ZSTD_resolveEnableLdm(i32 noundef %0, ptr noundef %1) #0 {
  %3 = alloca i32, align 4
  %4 = alloca i32, align 4
  %5 = alloca ptr, align 8
  store i32 %0, ptr %4, align 4, !tbaa !53
  store ptr %1, ptr %5, align 8, !tbaa !15
  %6 = load i32, ptr %4, align 4, !tbaa !53
  %7 = icmp ne i32 %6, 0
  br i1 %7, label %8, label %10

8:                                                ; preds = %2
  %9 = load i32, ptr %4, align 4, !tbaa !53
  store i32 %9, ptr %3, align 4
  br label %23

10:                                               ; preds = %2
  %11 = load ptr, ptr %5, align 8, !tbaa !15
  %12 = getelementptr inbounds nuw %struct.ZSTD_compressionParameters, ptr %11, i32 0, i32 6
  %13 = load i32, ptr %12, align 4, !tbaa !89
  %14 = icmp uge i32 %13, 7
  br i1 %14, label %15, label %20

15:                                               ; preds = %10
  %16 = load ptr, ptr %5, align 8, !tbaa !15
  %17 = getelementptr inbounds nuw %struct.ZSTD_compressionParameters, ptr %16, i32 0, i32 0
  %18 = load i32, ptr %17, align 4, !tbaa !83
  %19 = icmp uge i32 %18, 27
  br label %20

20:                                               ; preds = %15, %10
  %21 = phi i1 [ false, %10 ], [ %19, %15 ]
  %22 = select i1 %21, i32 1, i32 2
  store i32 %22, ptr %3, align 4
  br label %23

23:                                               ; preds = %20, %8
  %24 = load i32, ptr %3, align 4
  ret i32 %24
}

; Function Attrs: nounwind uwtable
define internal i32 @ZSTD_resolveBlockSplitterMode(i32 noundef %0, ptr noundef %1) #0 {
  %3 = alloca i32, align 4
  %4 = alloca i32, align 4
  %5 = alloca ptr, align 8
  store i32 %0, ptr %4, align 4, !tbaa !53
  store ptr %1, ptr %5, align 8, !tbaa !15
  %6 = load i32, ptr %4, align 4, !tbaa !53
  %7 = icmp ne i32 %6, 0
  br i1 %7, label %8, label %10

8:                                                ; preds = %2
  %9 = load i32, ptr %4, align 4, !tbaa !53
  store i32 %9, ptr %3, align 4
  br label %23

10:                                               ; preds = %2
  %11 = load ptr, ptr %5, align 8, !tbaa !15
  %12 = getelementptr inbounds nuw %struct.ZSTD_compressionParameters, ptr %11, i32 0, i32 6
  %13 = load i32, ptr %12, align 4, !tbaa !89
  %14 = icmp uge i32 %13, 7
  br i1 %14, label %15, label %20

15:                                               ; preds = %10
  %16 = load ptr, ptr %5, align 8, !tbaa !15
  %17 = getelementptr inbounds nuw %struct.ZSTD_compressionParameters, ptr %16, i32 0, i32 0
  %18 = load i32, ptr %17, align 4, !tbaa !83
  %19 = icmp uge i32 %18, 17
  br label %20

20:                                               ; preds = %15, %10
  %21 = phi i1 [ false, %10 ], [ %19, %15 ]
  %22 = select i1 %21, i32 1, i32 2
  store i32 %22, ptr %3, align 4
  br label %23

23:                                               ; preds = %20, %8
  %24 = load i32, ptr %3, align 4
  ret i32 %24
}

; Function Attrs: nounwind uwtable
define internal i32 @ZSTD_resolveRowMatchFinderMode(i32 noundef %0, ptr noundef %1) #0 {
  %3 = alloca i32, align 4
  %4 = alloca i32, align 4
  %5 = alloca ptr, align 8
  store i32 %0, ptr %4, align 4, !tbaa !53
  store ptr %1, ptr %5, align 8, !tbaa !15
  %6 = load i32, ptr %4, align 4, !tbaa !53
  %7 = icmp ne i32 %6, 0
  br i1 %7, label %8, label %10

8:                                                ; preds = %2
  %9 = load i32, ptr %4, align 4, !tbaa !53
  store i32 %9, ptr %3, align 4
  br label %26

10:                                               ; preds = %2
  store i32 2, ptr %4, align 4, !tbaa !53
  %11 = load ptr, ptr %5, align 8, !tbaa !15
  %12 = getelementptr inbounds nuw %struct.ZSTD_compressionParameters, ptr %11, i32 0, i32 6
  %13 = load i32, ptr %12, align 4, !tbaa !89
  %14 = call i32 @ZSTD_rowMatchFinderSupported(i32 noundef %13)
  %15 = icmp ne i32 %14, 0
  br i1 %15, label %18, label %16

16:                                               ; preds = %10
  %17 = load i32, ptr %4, align 4, !tbaa !53
  store i32 %17, ptr %3, align 4
  br label %26

18:                                               ; preds = %10
  %19 = load ptr, ptr %5, align 8, !tbaa !15
  %20 = getelementptr inbounds nuw %struct.ZSTD_compressionParameters, ptr %19, i32 0, i32 0
  %21 = load i32, ptr %20, align 4, !tbaa !83
  %22 = icmp ugt i32 %21, 14
  br i1 %22, label %23, label %24

23:                                               ; preds = %18
  store i32 1, ptr %4, align 4, !tbaa !53
  br label %24

24:                                               ; preds = %23, %18
  %25 = load i32, ptr %4, align 4, !tbaa !53
  store i32 %25, ptr %3, align 4
  br label %26

26:                                               ; preds = %24, %16, %8
  %27 = load i32, ptr %3, align 4
  ret i32 %27
}

; Function Attrs: nounwind uwtable
define internal void @ZSTD_CCtxParams_init_internal(ptr noundef %0, ptr noundef %1, i32 noundef %2) #0 {
  %4 = alloca ptr, align 8
  %5 = alloca ptr, align 8
  %6 = alloca i32, align 4
  store ptr %0, ptr %4, align 8, !tbaa !79
  store ptr %1, ptr %5, align 8, !tbaa !15
  store i32 %2, ptr %6, align 4, !tbaa !53
  %7 = load ptr, ptr %4, align 8, !tbaa !79
  call void @llvm.memset.p0.i64(ptr align 8 %7, i8 0, i64 224, i1 false)
  %8 = load ptr, ptr %4, align 8, !tbaa !79
  %9 = getelementptr inbounds nuw %struct.ZSTD_CCtx_params_s, ptr %8, i32 0, i32 1
  %10 = load ptr, ptr %5, align 8, !tbaa !15
  %11 = getelementptr inbounds nuw %struct.ZSTD_parameters, ptr %10, i32 0, i32 0
  call void @llvm.memcpy.p0.p0.i64(ptr align 4 %9, ptr align 4 %11, i64 28, i1 false), !tbaa.struct !90
  %12 = load ptr, ptr %4, align 8, !tbaa !79
  %13 = getelementptr inbounds nuw %struct.ZSTD_CCtx_params_s, ptr %12, i32 0, i32 2
  %14 = load ptr, ptr %5, align 8, !tbaa !15
  %15 = getelementptr inbounds nuw %struct.ZSTD_parameters, ptr %14, i32 0, i32 1
  call void @llvm.memcpy.p0.p0.i64(ptr align 8 %13, ptr align 4 %15, i64 12, i1 false), !tbaa.struct !91
  %16 = load i32, ptr %6, align 4, !tbaa !53
  %17 = load ptr, ptr %4, align 8, !tbaa !79
  %18 = getelementptr inbounds nuw %struct.ZSTD_CCtx_params_s, ptr %17, i32 0, i32 3
  store i32 %16, ptr %18, align 4, !tbaa !81
  %19 = load ptr, ptr %4, align 8, !tbaa !79
  %20 = getelementptr inbounds nuw %struct.ZSTD_CCtx_params_s, ptr %19, i32 0, i32 22
  %21 = load i32, ptr %20, align 8, !tbaa !92
  %22 = load ptr, ptr %5, align 8, !tbaa !15
  %23 = getelementptr inbounds nuw %struct.ZSTD_parameters, ptr %22, i32 0, i32 0
  %24 = call i32 @ZSTD_resolveRowMatchFinderMode(i32 noundef %21, ptr noundef %23)
  %25 = load ptr, ptr %4, align 8, !tbaa !79
  %26 = getelementptr inbounds nuw %struct.ZSTD_CCtx_params_s, ptr %25, i32 0, i32 22
  store i32 %24, ptr %26, align 8, !tbaa !92
  %27 = load ptr, ptr %4, align 8, !tbaa !79
  %28 = getelementptr inbounds nuw %struct.ZSTD_CCtx_params_s, ptr %27, i32 0, i32 19
  %29 = load i32, ptr %28, align 4, !tbaa !93
  %30 = load ptr, ptr %5, align 8, !tbaa !15
  %31 = getelementptr inbounds nuw %struct.ZSTD_parameters, ptr %30, i32 0, i32 0
  %32 = call i32 @ZSTD_resolveBlockSplitterMode(i32 noundef %29, ptr noundef %31)
  %33 = load ptr, ptr %4, align 8, !tbaa !79
  %34 = getelementptr inbounds nuw %struct.ZSTD_CCtx_params_s, ptr %33, i32 0, i32 19
  store i32 %32, ptr %34, align 4, !tbaa !93
  %35 = load ptr, ptr %4, align 8, !tbaa !79
  %36 = getelementptr inbounds nuw %struct.ZSTD_CCtx_params_s, ptr %35, i32 0, i32 13
  %37 = getelementptr inbounds nuw %struct.ldmParams_t, ptr %36, i32 0, i32 0
  %38 = load i32, ptr %37, align 8, !tbaa !94
  %39 = load ptr, ptr %5, align 8, !tbaa !15
  %40 = getelementptr inbounds nuw %struct.ZSTD_parameters, ptr %39, i32 0, i32 0
  %41 = call i32 @ZSTD_resolveEnableLdm(i32 noundef %38, ptr noundef %40)
  %42 = load ptr, ptr %4, align 8, !tbaa !79
  %43 = getelementptr inbounds nuw %struct.ZSTD_CCtx_params_s, ptr %42, i32 0, i32 13
  %44 = getelementptr inbounds nuw %struct.ldmParams_t, ptr %43, i32 0, i32 0
  store i32 %41, ptr %44, align 8, !tbaa !94
  %45 = load ptr, ptr %4, align 8, !tbaa !79
  %46 = getelementptr inbounds nuw %struct.ZSTD_CCtx_params_s, ptr %45, i32 0, i32 18
  %47 = load i32, ptr %46, align 8, !tbaa !95
  %48 = call i32 @ZSTD_resolveExternalSequenceValidation(i32 noundef %47)
  %49 = load ptr, ptr %4, align 8, !tbaa !79
  %50 = getelementptr inbounds nuw %struct.ZSTD_CCtx_params_s, ptr %49, i32 0, i32 18
  store i32 %48, ptr %50, align 8, !tbaa !95
  %51 = load ptr, ptr %4, align 8, !tbaa !79
  %52 = getelementptr inbounds nuw %struct.ZSTD_CCtx_params_s, ptr %51, i32 0, i32 21
  %53 = load i64, ptr %52, align 8, !tbaa !96
  %54 = call i64 @ZSTD_resolveMaxBlockSize(i64 noundef %53)
  %55 = load ptr, ptr %4, align 8, !tbaa !79
  %56 = getelementptr inbounds nuw %struct.ZSTD_CCtx_params_s, ptr %55, i32 0, i32 21
  store i64 %54, ptr %56, align 8, !tbaa !96
  %57 = load ptr, ptr %4, align 8, !tbaa !79
  %58 = getelementptr inbounds nuw %struct.ZSTD_CCtx_params_s, ptr %57, i32 0, i32 29
  %59 = load i32, ptr %58, align 8, !tbaa !97
  %60 = load i32, ptr %6, align 4, !tbaa !53
  %61 = call i32 @ZSTD_resolveExternalRepcodeSearch(i32 noundef %59, i32 noundef %60)
  %62 = load ptr, ptr %4, align 8, !tbaa !79
  %63 = getelementptr inbounds nuw %struct.ZSTD_CCtx_params_s, ptr %62, i32 0, i32 29
  store i32 %61, ptr %63, align 8, !tbaa !97
  br label %64

64:                                               ; preds = %3
  br label %65

65:                                               ; preds = %64
  ret void
}

; Function Attrs: nounwind uwtable
define internal void @ZSTD_getParams_internal(ptr dead_on_unwind noalias writable sret(%struct.ZSTD_parameters) align 4 %0, i32 noundef %1, i64 noundef %2, i64 noundef %3, i32 noundef %4) #0 {
  %6 = alloca i32, align 4
  %7 = alloca i64, align 8
  %8 = alloca i64, align 8
  %9 = alloca i32, align 4
  %10 = alloca %struct.ZSTD_compressionParameters, align 4
  store i32 %1, ptr %6, align 4, !tbaa !53
  store i64 %2, ptr %7, align 8, !tbaa !141
  store i64 %3, ptr %8, align 8, !tbaa !3
  store i32 %4, ptr %9, align 4, !tbaa !53
  call void @llvm.lifetime.start.p0(i64 28, ptr %10) #15
  %11 = load i32, ptr %6, align 4, !tbaa !53
  %12 = load i64, ptr %7, align 8, !tbaa !141
  %13 = load i64, ptr %8, align 8, !tbaa !3
  %14 = load i32, ptr %9, align 4, !tbaa !53
  call void @ZSTD_getCParams_internal(ptr dead_on_unwind writable sret(%struct.ZSTD_compressionParameters) align 4 %10, i32 noundef %11, i64 noundef %12, i64 noundef %13, i32 noundef %14)
  br label %15

15:                                               ; preds = %5
  br label %16

16:                                               ; preds = %15
  br label %17

17:                                               ; preds = %16
  call void @llvm.memset.p0.i64(ptr align 4 %0, i8 0, i64 40, i1 false)
  %18 = getelementptr inbounds nuw %struct.ZSTD_parameters, ptr %0, i32 0, i32 0
  call void @llvm.memcpy.p0.p0.i64(ptr align 4 %18, ptr align 4 %10, i64 28, i1 false), !tbaa.struct !90
  %19 = getelementptr inbounds nuw %struct.ZSTD_parameters, ptr %0, i32 0, i32 1
  %20 = getelementptr inbounds nuw %struct.ZSTD_frameParameters, ptr %19, i32 0, i32 0
  store i32 1, ptr %20, align 4, !tbaa !276
  call void @llvm.lifetime.end.p0(i64 28, ptr %10) #15
  ret void
}

; Function Attrs: nounwind uwtable
define i64 @ZSTD_compress_usingDict(ptr noundef %0, ptr noundef %1, i64 noundef %2, ptr noundef %3, i64 noundef %4, ptr noundef %5, i64 noundef %6, i32 noundef %7) #0 {
  %9 = alloca ptr, align 8
  %10 = alloca ptr, align 8
  %11 = alloca i64, align 8
  %12 = alloca ptr, align 8
  %13 = alloca i64, align 8
  %14 = alloca ptr, align 8
  %15 = alloca i64, align 8
  %16 = alloca i32, align 4
  %17 = alloca %struct.ZSTD_parameters, align 4
  store ptr %0, ptr %9, align 8, !tbaa !11
  store ptr %1, ptr %10, align 8, !tbaa !15
  store i64 %2, ptr %11, align 8, !tbaa !3
  store ptr %3, ptr %12, align 8, !tbaa !15
  store i64 %4, ptr %13, align 8, !tbaa !3
  store ptr %5, ptr %14, align 8, !tbaa !15
  store i64 %6, ptr %15, align 8, !tbaa !3
  store i32 %7, ptr %16, align 4, !tbaa !53
  call void @llvm.lifetime.start.p0(i64 40, ptr %17) #15
  %18 = load i32, ptr %16, align 4, !tbaa !53
  %19 = load i64, ptr %13, align 8, !tbaa !3
  %20 = load ptr, ptr %14, align 8, !tbaa !15
  %21 = icmp ne ptr %20, null
  br i1 %21, label %22, label %24

22:                                               ; preds = %8
  %23 = load i64, ptr %15, align 8, !tbaa !3
  br label %25

24:                                               ; preds = %8
  br label %25

25:                                               ; preds = %24, %22
  %26 = phi i64 [ %23, %22 ], [ 0, %24 ]
  call void @ZSTD_getParams_internal(ptr dead_on_unwind writable sret(%struct.ZSTD_parameters) align 4 %17, i32 noundef %18, i64 noundef %19, i64 noundef %26, i32 noundef 0)
  %27 = load ptr, ptr %9, align 8, !tbaa !11
  %28 = getelementptr inbounds nuw %struct.ZSTD_CCtx_s, ptr %27, i32 0, i32 5
  %29 = load i32, ptr %16, align 4, !tbaa !53
  %30 = icmp eq i32 %29, 0
  br i1 %30, label %31, label %32

31:                                               ; preds = %25
  br label %34

32:                                               ; preds = %25
  %33 = load i32, ptr %16, align 4, !tbaa !53
  br label %34

34:                                               ; preds = %32, %31
  %35 = phi i32 [ 3, %31 ], [ %33, %32 ]
  call void @ZSTD_CCtxParams_init_internal(ptr noundef %28, ptr noundef %17, i32 noundef %35)
  call void @llvm.lifetime.end.p0(i64 40, ptr %17) #15
  br label %36

36:                                               ; preds = %34
  br label %37

37:                                               ; preds = %36
  %38 = load ptr, ptr %9, align 8, !tbaa !11
  %39 = load ptr, ptr %10, align 8, !tbaa !15
  %40 = load i64, ptr %11, align 8, !tbaa !3
  %41 = load ptr, ptr %12, align 8, !tbaa !15
  %42 = load i64, ptr %13, align 8, !tbaa !3
  %43 = load ptr, ptr %14, align 8, !tbaa !15
  %44 = load i64, ptr %15, align 8, !tbaa !3
  %45 = load ptr, ptr %9, align 8, !tbaa !11
  %46 = getelementptr inbounds nuw %struct.ZSTD_CCtx_s, ptr %45, i32 0, i32 5
  %47 = call i64 @ZSTD_compress_advanced_internal(ptr noundef %38, ptr noundef %39, i64 noundef %40, ptr noundef %41, i64 noundef %42, ptr noundef %43, i64 noundef %44, ptr noundef %46)
  ret i64 %47
}