; Function Attrs: nounwind uwtable
define i64 @ZSTD_compress_usingDict(ptr noundef initializes((464, 688)) %0, ptr noundef %1, i64 noundef %2, ptr noundef %3, i64 noundef %4, ptr noundef %5, i64 noundef %6, i32 noundef %7) local_unnamed_addr #2 {
  %9 = alloca %struct.ZSTD_compressionParameters, align 4
  %.sroa.7 = alloca { i32, i32, i32, i32, i32 }, align 8
  call void @llvm.lifetime.start.p0(i64 20, ptr nonnull %.sroa.7)
  %.not = icmp eq ptr %5, null
  %10 = select i1 %.not, i64 0, i64 %6
  call void @llvm.lifetime.start.p0(i64 28, ptr nonnull %9) #28, !noalias !306
  call fastcc void @ZSTD_getCParams_internal(ptr dead_on_unwind noalias nonnull writable align 4 %9, i32 noundef %7, i64 noundef %4, i64 noundef %10, i32 noundef 0), !noalias !306
  %.sroa.0.0.copyload = load i32, ptr %9, align 4, !tbaa !48
  %.sroa.7.0..sroa_idx = getelementptr inbounds nuw i8, ptr %9, i64 4
  call void @llvm.memcpy.p0.p0.i64(ptr noundef nonnull align 8 dereferenceable(20) %.sroa.7, ptr noundef nonnull align 4 dereferenceable(20) %.sroa.7.0..sroa_idx, i64 20, i1 false), !tbaa.struct !130
  %.sroa.718.0..sroa_idx = getelementptr inbounds nuw i8, ptr %9, i64 24
  %.sroa.718.0.copyload = load i32, ptr %.sroa.718.0..sroa_idx, align 4, !tbaa !48
  call void @llvm.lifetime.end.p0(i64 28, ptr nonnull %9) #28, !noalias !306
  %11 = getelementptr inbounds nuw i8, ptr %0, i64 464
  %12 = icmp eq i32 %7, 0
  %13 = select i1 %12, i32 3, i32 %7
  tail call void @llvm.memset.p0.i64(ptr noundef nonnull align 8 dereferenceable(224) %11, i8 0, i64 224, i1 false)
  %14 = getelementptr inbounds nuw i8, ptr %0, i64 468
  store i32 %.sroa.0.0.copyload, ptr %14, align 4, !tbaa !48
  %.sroa.7.0..sroa_idx17 = getelementptr inbounds nuw i8, ptr %0, i64 472
  call void @llvm.memcpy.p0.p0.i64(ptr noundef nonnull align 4 dereferenceable(20) %.sroa.7.0..sroa_idx17, ptr noundef nonnull align 8 dereferenceable(20) %.sroa.7, i64 20, i1 false), !tbaa.struct !130
  %.sroa.718.0..sroa_idx19 = getelementptr inbounds nuw i8, ptr %0, i64 492
  store i32 %.sroa.718.0.copyload, ptr %.sroa.718.0..sroa_idx19, align 4, !tbaa !48
  %15 = getelementptr inbounds nuw i8, ptr %0, i64 496
  store i32 1, ptr %15, align 8, !tbaa !48
  %16 = getelementptr inbounds nuw i8, ptr %0, i64 508
  store i32 %13, ptr %16, align 4, !tbaa !43
  %17 = getelementptr inbounds nuw i8, ptr %0, i64 624
  %18 = add i32 %.sroa.718.0.copyload, -6
  %19 = icmp ult i32 %18, -3
  br i1 %19, label %20, label %23

20:                                               ; preds = %8
  store i32 2, ptr %17, align 8, !tbaa !76
  %21 = getelementptr inbounds nuw i8, ptr %0, i64 604
  %22 = icmp ugt i32 %.sroa.718.0.copyload, 6
  br i1 %22, label %26, label %.thread26

.thread26:                                        ; preds = %20
  store i32 2, ptr %21, align 4, !tbaa !77
  br label %ZSTD_CCtxParams_init_internal.exit

23:                                               ; preds = %8
  %24 = icmp ugt i32 %.sroa.0.0.copyload, 14
  %spec.select.i.i = select i1 %24, i32 1, i32 2
  store i32 %spec.select.i.i, ptr %17, align 8, !tbaa !76
  %25 = getelementptr inbounds nuw i8, ptr %0, i64 604
  store i32 2, ptr %25, align 4, !tbaa !77
  br label %ZSTD_CCtxParams_init_internal.exit

26:                                               ; preds = %20
  %27 = icmp ugt i32 %.sroa.0.0.copyload, 16
  %28 = select i1 %27, i32 1, i32 2
  store i32 %28, ptr %21, align 4, !tbaa !77
  %29 = icmp ugt i32 %.sroa.0.0.copyload, 26
  %30 = select i1 %29, i32 1, i32 2
  br label %ZSTD_CCtxParams_init_internal.exit

ZSTD_CCtxParams_init_internal.exit:               ; preds = %23, %.thread26, %26
  %.0.i25.i = phi i32 [ 2, %23 ], [ %30, %26 ], [ 2, %.thread26 ]
  %31 = getelementptr inbounds nuw i8, ptr %0, i64 560
  store i32 %.0.i25.i, ptr %31, align 8, !tbaa !78
  %32 = getelementptr inbounds nuw i8, ptr %0, i64 616
  store i64 131072, ptr %32, align 8, !tbaa !79
  %33 = getelementptr inbounds nuw i8, ptr %0, i64 680
  %34 = icmp slt i32 %13, 10
  %..i27.i = select i1 %34, i32 2, i32 1
  store i32 %..i27.i, ptr %33, align 8, !tbaa !80
  call void @llvm.lifetime.end.p0(i64 20, ptr nonnull %.sroa.7)
  %35 = tail call i64 @ZSTD_compress_advanced_internal(ptr noundef nonnull %0, ptr noundef %1, i64 noundef %2, ptr noundef %3, i64 noundef %4, ptr noundef %5, i64 noundef %6, ptr noundef nonnull %11)
  ret i64 %35
}